target datalayout = "e-m:e-p270:32:32-p271:32:32-p272:64:64-i64:64-i128:128-f80:128-n8:16:32:64-S128"
target triple = "x86_64-unknown-linux-gnu"

%struct.PCIDevice = type { %struct.DeviceState, i8, i8, ptr, ptr, ptr, ptr, ptr, i32, %struct.PCIReqIDCache, [64 x i8], [7 x %struct.PCIIORegion], %struct.AddressSpace, %struct.MemoryRegion, %struct.MemoryRegion, ptr, ptr, [3 x ptr], i8, i8, i32, i8, i32, ptr, ptr, ptr, ptr, ptr, ptr, %struct.MemoryRegion, %struct.MemoryRegion, %struct.MemoryRegion, ptr, i8, i32, i8, %struct.PCIExpressDevice, ptr, ptr, i32, i8, %struct.MemoryRegion, i32, ptr, ptr, ptr, ptr, ptr, i32 }
%struct.DeviceState = type { %struct.Object, ptr, ptr, i8, i8, i64, ptr, i32, i8, ptr, %struct.NamedGPIOListHead, %struct.NamedClockListHead, %struct.BusStateHead, i32, i32, i32, %struct.ResettableState, ptr, %struct.MemReentrancyGuard }
%struct.Object = type { ptr, ptr, ptr, i32, ptr }
%struct.NamedGPIOListHead = type { ptr }
%struct.NamedClockListHead = type { ptr }
%struct.BusStateHead = type { ptr }
%struct.ResettableState = type { i32, i8, i8 }
%struct.MemReentrancyGuard = type { i8 }
%struct.PCIReqIDCache = type { ptr, i32 }
%struct.PCIIORegion = type { i64, i64, i8, ptr, ptr }
%struct.AddressSpace = type { %struct.rcu_head, ptr, ptr, ptr, i32, i32, ptr, %union.anon, %union.anon.0 }
%struct.rcu_head = type { ptr, ptr }
%union.anon = type { %struct.QTailQLink }
%struct.QTailQLink = type { ptr, ptr }
%union.anon.0 = type { %struct.QTailQLink }
%struct.PCIExpressDevice = type { i8, i8, i8, i16, %struct.PCIEAERLog, i16, i16, i16, %struct.PCIESriovPF, %struct.PCIESriovVF }
%struct.PCIEAERLog = type { i16, i16, ptr }
%struct.PCIESriovPF = type { i16, [7 x i8], ptr, ptr }
%struct.PCIESriovVF = type { ptr, i16 }
%struct.MemoryRegion = type { %struct.Object, i8, i8, i8, i8, i8, i8, i8, i8, i8, i8, ptr, ptr, ptr, ptr, ptr, ptr, i32, i128, i64, ptr, i64, i8, i8, i8, i8, i8, ptr, i64, i32, %union.anon.1, %union.anon.2, %union.anon.3, ptr, i32, ptr, ptr, i8 }
%union.anon.1 = type { %struct.QTailQLink }
%union.anon.2 = type { %struct.QTailQLink }
%union.anon.3 = type { %struct.QTailQLink }
%struct.IVShmemState = type { %struct.PCIDevice, i32, ptr, %struct.CharBackend, i32, i32, i32, %struct.MemoryRegion, ptr, %struct.MemoryRegion, ptr, i32, i32, ptr, i64, i32, i32, ptr }
%struct.CharBackend = type { ptr, ptr, ptr, ptr, ptr, ptr, i32, i32 }
%struct.MSIVector = type { ptr, i32, i8 }
%struct.KVMRouteChange = type { ptr, i32 }

@.str.1 = private unnamed_addr constant [11 x i8] c"pci-device\00", align 1
@.str.6 = private unnamed_addr constant [106 x i8] c"/home/dtcxzyw/WorkSpace/Projects/compilers/llvm-opt-benchmark/bench/qemu/qemu/include/hw/pci/pci_device.h\00", align 1
@.str.7 = private unnamed_addr constant [26 x i8] c"../qemu/hw/misc/ivshmem.c\00", align 1
@kvm_state = external global ptr, align 8
@.str.25 = private unnamed_addr constant [29 x i8] c"!s->msi_vectors[vector].pdev\00", align 1
@__PRETTY_FUNCTION__.ivshmem_add_kvm_msi_virq = private unnamed_addr constant [61 x i8] c"void ivshmem_add_kvm_msi_virq(IVShmemState *, int, Error **)\00", align 1
@__func__.ivshmem_add_kvm_msi_virq = private unnamed_addr constant [25 x i8] c"ivshmem_add_kvm_msi_virq\00", align 1
@.str.26 = private unnamed_addr constant [33 x i8] c"kvm_irqchip_add_msi_route failed\00", align 1
@__func__.PCI_DEVICE = private unnamed_addr constant [11 x i8] c"PCI_DEVICE\00", align 1

; Function Attrs: nounwind sspstrong uwtable
define internal void @kvm_irqchip_commit_route_changes(ptr noundef %c) #0 {
entry:
  %c.addr = alloca ptr, align 8
  store ptr %c, ptr %c.addr, align 8
  %0 = load ptr, ptr %c.addr, align 8
  %changes = getelementptr inbounds %struct.KVMRouteChange, ptr %0, i32 0, i32 1
  %1 = load i32, ptr %changes, align 8
  %tobool = icmp ne i32 %1, 0
  br i1 %tobool, label %if.then, label %if.end

if.then:                                          ; preds = %entry
  %2 = load ptr, ptr %c.addr, align 8
  %s = getelementptr inbounds %struct.KVMRouteChange, ptr %2, i32 0, i32 0
  %3 = load ptr, ptr %s, align 8
  call void @kvm_irqchip_commit_routes(ptr noundef %3)
  %4 = load ptr, ptr %c.addr, align 8
  %changes1 = getelementptr inbounds %struct.KVMRouteChange, ptr %4, i32 0, i32 1
  store i32 0, ptr %changes1, align 8
  br label %if.end

if.end:                                           ; preds = %if.then, %entry
  ret void
}

; Function Attrs: nounwind sspstrong uwtable
define internal { ptr, i32 } @kvm_irqchip_begin_route_changes(ptr noundef %s) #0 {
entry:
  %retval = alloca %struct.KVMRouteChange, align 8
  %s.addr = alloca ptr, align 8
  store ptr %s, ptr %s.addr, align 8
  %s1 = getelementptr inbounds %struct.KVMRouteChange, ptr %retval, i32 0, i32 0
  %0 = load ptr, ptr %s.addr, align 8
  store ptr %0, ptr %s1, align 8
  %changes = getelementptr inbounds %struct.KVMRouteChange, ptr %retval, i32 0, i32 1
  store i32 0, ptr %changes, align 8
  %1 = load { ptr, i32 }, ptr %retval, align 8
  ret { ptr, i32 } %1
}

; Function Attrs: nounwind sspstrong uwtable
define internal ptr @PCI_DEVICE(ptr noundef %obj) #0 {
entry:
  %obj.addr = alloca ptr, align 8
  store ptr %obj, ptr %obj.addr, align 8
  %0 = load ptr, ptr %obj.addr, align 8
  %call = call ptr @object_dynamic_cast_assert(ptr noundef %0, ptr noundef @.str.1, ptr noundef @.str.6, i32 noundef 10, ptr noundef @__func__.PCI_DEVICE)
  ret ptr %call
}

; Function Attrs: nounwind sspstrong uwtable
define internal void @ivshmem_add_kvm_msi_virq(ptr noundef %s, i32 noundef %vector, ptr noundef %errp) #0 {
entry:
  %s.addr = alloca ptr, align 8
  %vector.addr = alloca i32, align 4
  %errp.addr = alloca ptr, align 8
  %pdev = alloca ptr, align 8
  %c = alloca %struct.KVMRouteChange, align 8
  %ret = alloca i32, align 4
  %tmp = alloca %struct.KVMRouteChange, align 8
  store ptr %s, ptr %s.addr, align 8
  store i32 %vector, ptr %vector.addr, align 4
  store ptr %errp, ptr %errp.addr, align 8
  %0 = load ptr, ptr %s.addr, align 8
  %call = call ptr @PCI_DEVICE(ptr noundef %0)
  store ptr %call, ptr %pdev, align 8
  br label %do.body

do.body:                                          ; preds = %entry
  br label %do.end

do.end:                                           ; preds = %do.body
  %1 = load ptr, ptr %s.addr, align 8
  %msi_vectors = getelementptr inbounds %struct.IVShmemState, ptr %1, i32 0, i32 13
  %2 = load ptr, ptr %msi_vectors, align 16
  %3 = load i32, ptr %vector.addr, align 4
  %idxprom = sext i32 %3 to i64
  %arrayidx = getelementptr %struct.MSIVector, ptr %2, i64 %idxprom
  %pdev1 = getelementptr inbounds %struct.MSIVector, ptr %arrayidx, i32 0, i32 0
  %4 = load ptr, ptr %pdev1, align 8
  %tobool = icmp ne ptr %4, null
  br i1 %tobool, label %if.else, label %if.then

if.then:                                          ; preds = %do.end
  br label %if.end

if.else:                                          ; preds = %do.end
  call void @__assert_fail(ptr noundef @.str.25, ptr noundef @.str.7, i32 noundef 431, ptr noundef @__PRETTY_FUNCTION__.ivshmem_add_kvm_msi_virq) #7
  unreachable

if.end:                                           ; preds = %if.then
  %5 = load ptr, ptr @kvm_state, align 8
  %call2 = call { ptr, i32 } @kvm_irqchip_begin_route_changes(ptr noundef %5)
  %6 = getelementptr inbounds { ptr, i32 }, ptr %tmp, i32 0, i32 0
  %7 = extractvalue { ptr, i32 } %call2, 0
  store ptr %7, ptr %6, align 8
  %8 = getelementptr inbounds { ptr, i32 }, ptr %tmp, i32 0, i32 1
  %9 = extractvalue { ptr, i32 } %call2, 1
  store i32 %9, ptr %8, align 8
  call void @llvm.memcpy.p0.p0.i64(ptr align 8 %c, ptr align 8 %tmp, i64 16, i1 false)
  %10 = load i32, ptr %vector.addr, align 4
  %11 = load ptr, ptr %pdev, align 8
  %call3 = call i32 @kvm_irqchip_add_msi_route(ptr noundef %c, i32 noundef %10, ptr noundef %11)
  store i32 %call3, ptr %ret, align 4
  %12 = load i32, ptr %ret, align 4
  %cmp = icmp slt i32 %12, 0
  br i1 %cmp, label %if.then4, label %if.end5

if.then4:                                         ; preds = %if.end
  %13 = load ptr, ptr %errp.addr, align 8
  call void (ptr, ptr, i32, ptr, ptr, ...) @error_setg_internal(ptr noundef %13, ptr noundef @.str.7, i32 noundef 436, ptr noundef @__func__.ivshmem_add_kvm_msi_virq, ptr noundef @.str.26)
  br label %return

if.end5:                                          ; preds = %if.end
  call void @kvm_irqchip_commit_route_changes(ptr noundef %c)
  %14 = load i32, ptr %ret, align 4
  %15 = load ptr, ptr %s.addr, align 8
  %msi_vectors6 = getelementptr inbounds %struct.IVShmemState, ptr %15, i32 0, i32 13
  %16 = load ptr, ptr %msi_vectors6, align 16
  %17 = load i32, ptr %vector.addr, align 4
  %idxprom7 = sext i32 %17 to i64
  %arrayidx8 = getelementptr %struct.MSIVector, ptr %16, i64 %idxprom7
  %virq = getelementptr inbounds %struct.MSIVector, ptr %arrayidx8, i32 0, i32 1
  store i32 %14, ptr %virq, align 8
  %18 = load ptr, ptr %pdev, align 8
  %19 = load ptr, ptr %s.addr, align 8
  %msi_vectors9 = getelementptr inbounds %struct.IVShmemState, ptr %19, i32 0, i32 13
  %20 = load ptr, ptr %msi_vectors9, align 16
  %21 = load i32, ptr %vector.addr, align 4
  %idxprom10 = sext i32 %21 to i64
  %arrayidx11 = getelementptr %struct.MSIVector, ptr %20, i64 %idxprom10
  %pdev12 = getelementptr inbounds %struct.MSIVector, ptr %arrayidx11, i32 0, i32 0
  store ptr %18, ptr %pdev12, align 8
  br label %return

return:                                           ; preds = %if.end5, %if.then4
  ret void
}