; Function Attrs: nounwind sspstrong uwtable
define internal fastcc void @ivshmem_add_kvm_msi_virq(ptr noundef %s, i32 noundef %vector, ptr noundef nonnull %errp) unnamed_addr #0 {
entry:
  %c = alloca %struct.KVMRouteChange, align 8
  %call.i = tail call ptr @object_dynamic_cast_assert(ptr noundef %s, ptr noundef nonnull @.str.1, ptr noundef nonnull @.str.6, i32 noundef 10, ptr noundef nonnull @__func__.PCI_DEVICE) #11
  %msi_vectors = getelementptr inbounds nuw i8, ptr %s, i64 3280
  %0 = load ptr, ptr %msi_vectors, align 16
  %idxprom = sext i32 %vector to i64
  %arrayidx = getelementptr %struct.MSIVector, ptr %0, i64 %idxprom
  %1 = load ptr, ptr %arrayidx, align 8
  %tobool.not = icmp eq ptr %1, null
  br i1 %tobool.not, label %if.end, label %if.else

if.else:                                          ; preds = %entry
  tail call void @__assert_fail(ptr noundef nonnull @.str.25, ptr noundef nonnull @.str.7, i32 noundef 431, ptr noundef nonnull @__PRETTY_FUNCTION__.ivshmem_add_kvm_msi_virq) #12
  unreachable

if.end:                                           ; preds = %entry
  %2 = load ptr, ptr @kvm_state, align 8
  store ptr %2, ptr %c, align 8
  %tmp.sroa.2.0.c.sroa_idx = getelementptr inbounds nuw i8, ptr %c, i64 8
  store i32 0, ptr %tmp.sroa.2.0.c.sroa_idx, align 8
  %call3 = call i32 @kvm_irqchip_add_msi_route(ptr noundef nonnull %c, i32 noundef %vector, ptr noundef %call.i) #11
  %cmp = icmp slt i32 %call3, 0
  br i1 %cmp, label %if.then4, label %if.end5

if.then4:                                         ; preds = %if.end
  call void (ptr, ptr, i32, ptr, ptr, ...) @error_setg_internal(ptr noundef nonnull %errp, ptr noundef nonnull @.str.7, i32 noundef 436, ptr noundef nonnull @__func__.ivshmem_add_kvm_msi_virq, ptr noundef nonnull @.str.26) #11
  br label %return

if.end5:                                          ; preds = %if.end
  %3 = load i32, ptr %tmp.sroa.2.0.c.sroa_idx, align 8
  %tobool.not.i = icmp eq i32 %3, 0
  br i1 %tobool.not.i, label %kvm_irqchip_commit_route_changes.exit, label %if.then.i

if.then.i:                                        ; preds = %if.end5
  %4 = load ptr, ptr %c, align 8
  call void @kvm_irqchip_commit_routes(ptr noundef %4) #11
  br label %kvm_irqchip_commit_route_changes.exit

kvm_irqchip_commit_route_changes.exit:            ; preds = %if.end5, %if.then.i
  %5 = load ptr, ptr %msi_vectors, align 16
  %virq = getelementptr %struct.MSIVector, ptr %5, i64 %idxprom, i32 1
  store i32 %call3, ptr %virq, align 8
  %6 = load ptr, ptr %msi_vectors, align 16
  %arrayidx11 = getelementptr %struct.MSIVector, ptr %6, i64 %idxprom
  store ptr %call.i, ptr %arrayidx11, align 8
  br label %return

return:                                           ; preds = %kvm_irqchip_commit_route_changes.exit, %if.then4
  ret void
}